; Function Attrs: mustprogress uwtable
define noundef ptr @_ZN6duckdb14MetadataReader7BasePtrEv(ptr noundef nonnull align 8 dereferenceable(112) %0) local_unnamed_addr #2 align 2 {
  %2 = getelementptr inbounds nuw i8, ptr %0, i64 48
  tail call void @_ZNK6duckdb12optional_ptrINS_10FileBufferELb1EE10CheckValidEv(ptr noundef nonnull align 8 dereferenceable(8) %2)
  %3 = load ptr, ptr %2, align 8, !tbaa !104
  %4 = getelementptr inbounds nuw i8, ptr %3, i64 16
  %5 = load ptr, ptr %4, align 8, !tbaa !106
  %6 = getelementptr inbounds nuw i8, ptr %0, i64 80
  %7 = load i64, ptr %6, align 8, !tbaa !207
  %8 = getelementptr inbounds nuw i8, ptr %0, i64 8
  %9 = load ptr, ptr %8, align 8, !tbaa !190
  %10 = load ptr, ptr %9, align 8, !tbaa !43
  %11 = getelementptr inbounds nuw i8, ptr %10, i64 120
  %12 = tail call noundef i64 @_ZNK6duckdb12optional_idx8GetIndexEv(ptr noundef nonnull align 8 dereferenceable(8) %11)
  %13 = add i64 %12, -8
  %14 = lshr i64 %13, 6
  %15 = and i64 %14, 288230376151711736
  %16 = mul i64 %15, %7
  %17 = getelementptr inbounds nuw i8, ptr %5, i64 %16
  ret ptr %17
}